target datalayout = "e-m:e-p270:32:32-p271:32:32-p272:64:64-i64:64-i128:128-f80:128-n8:16:32:64-S128"
target triple = "x86_64-pc-linux-gnu"

%struct.sp_int = type { i16, i16, [129 x i64] }

; Function Attrs: nounwind uwtable
define i32 @sp_mod(ptr noundef %0, ptr noundef %1, ptr noundef %2) #0 {
  %4 = alloca ptr, align 8
  %5 = alloca ptr, align 8
  %6 = alloca ptr, align 8
  %7 = alloca i32, align 4
  store ptr %0, ptr %4, align 8, !tbaa !3
  store ptr %1, ptr %5, align 8, !tbaa !3
  store ptr %2, ptr %6, align 8, !tbaa !3
  call void @llvm.lifetime.start.p0(i64 4, ptr %7) #8
  store i32 0, ptr %7, align 4, !tbaa !8
  %8 = load ptr, ptr %4, align 8, !tbaa !3
  %9 = icmp eq ptr %8, null
  br i1 %9, label %16, label %10

10:                                               ; preds = %3
  %11 = load ptr, ptr %5, align 8, !tbaa !3
  %12 = icmp eq ptr %11, null
  br i1 %12, label %16, label %13

13:                                               ; preds = %10
  %14 = load ptr, ptr %6, align 8, !tbaa !3
  %15 = icmp eq ptr %14, null
  br i1 %15, label %16, label %17

16:                                               ; preds = %13, %10, %3
  store i32 -98, ptr %7, align 4, !tbaa !8
  br label %25

17:                                               ; preds = %13
  %18 = load ptr, ptr %4, align 8, !tbaa !3
  %19 = getelementptr inbounds nuw %struct.sp_int, ptr %18, i32 0, i32 0
  %20 = load i16, ptr %19, align 8, !tbaa !15
  %21 = zext i16 %20 to i32
  %22 = icmp sge i32 %21, 129
  br i1 %22, label %23, label %24

23:                                               ; preds = %17
  store i32 -98, ptr %7, align 4, !tbaa !8
  br label %24

24:                                               ; preds = %23, %17
  br label %25

25:                                               ; preds = %24, %16
  %26 = load i32, ptr %7, align 4, !tbaa !8
  %27 = icmp eq i32 %26, 0
  br i1 %27, label %28, label %33

28:                                               ; preds = %25
  %29 = load ptr, ptr %4, align 8, !tbaa !3
  %30 = load ptr, ptr %5, align 8, !tbaa !3
  %31 = load ptr, ptr %6, align 8, !tbaa !3
  %32 = call i32 @sp_div(ptr noundef %29, ptr noundef %30, ptr noundef null, ptr noundef %31)
  store i32 %32, ptr %7, align 4, !tbaa !8
  br label %33

33:                                               ; preds = %28, %25
  %34 = load i32, ptr %7, align 4, !tbaa !8
  call void @llvm.lifetime.end.p0(i64 4, ptr %7) #8
  ret i32 %34
}

; Function Attrs: nounwind uwtable
define i32 @sp_sqrmod(ptr noundef %0, ptr noundef %1, ptr noundef %2) #0 {
  %4 = alloca ptr, align 8
  %5 = alloca ptr, align 8
  %6 = alloca ptr, align 8
  %7 = alloca i32, align 4
  store ptr %0, ptr %4, align 8, !tbaa !3
  store ptr %1, ptr %5, align 8, !tbaa !3
  store ptr %2, ptr %6, align 8, !tbaa !3
  call void @llvm.lifetime.start.p0(i64 4, ptr %7) #8
  store i32 0, ptr %7, align 4, !tbaa !8
  %8 = load ptr, ptr %4, align 8, !tbaa !3
  %9 = icmp eq ptr %8, null
  br i1 %9, label %16, label %10

10:                                               ; preds = %3
  %11 = load ptr, ptr %5, align 8, !tbaa !3
  %12 = icmp eq ptr %11, null
  br i1 %12, label %16, label %13

13:                                               ; preds = %10
  %14 = load ptr, ptr %6, align 8, !tbaa !3
  %15 = icmp eq ptr %14, null
  br i1 %15, label %16, label %17

16:                                               ; preds = %13, %10, %3
  store i32 -98, ptr %7, align 4, !tbaa !8
  br label %17

17:                                               ; preds = %16, %13
  %18 = load i32, ptr %7, align 4, !tbaa !8
  %19 = icmp eq i32 %18, 0
  br i1 %19, label %20, label %36

20:                                               ; preds = %17
  %21 = load ptr, ptr %6, align 8, !tbaa !3
  %22 = load ptr, ptr %5, align 8, !tbaa !3
  %23 = icmp ne ptr %21, %22
  br i1 %23, label %24, label %36

24:                                               ; preds = %20
  %25 = load ptr, ptr %4, align 8, !tbaa !3
  %26 = getelementptr inbounds nuw %struct.sp_int, ptr %25, i32 0, i32 0
  %27 = load i16, ptr %26, align 8, !tbaa !15
  %28 = zext i16 %27 to i32
  %29 = mul nsw i32 %28, 2
  %30 = load ptr, ptr %6, align 8, !tbaa !3
  %31 = getelementptr inbounds nuw %struct.sp_int, ptr %30, i32 0, i32 1
  %32 = load i16, ptr %31, align 2, !tbaa !12
  %33 = zext i16 %32 to i32
  %34 = icmp sgt i32 %29, %33
  br i1 %34, label %35, label %36

35:                                               ; preds = %24
  store i32 -98, ptr %7, align 4, !tbaa !8
  br label %36

36:                                               ; preds = %35, %24, %20, %17
  %37 = load i32, ptr %7, align 4, !tbaa !8
  %38 = icmp eq i32 %37, 0
  br i1 %38, label %39, label %51

39:                                               ; preds = %36
  %40 = load ptr, ptr %6, align 8, !tbaa !3
  %41 = load ptr, ptr %5, align 8, !tbaa !3
  %42 = icmp eq ptr %40, %41
  br i1 %42, label %43, label %51

43:                                               ; preds = %39
  %44 = load ptr, ptr %4, align 8, !tbaa !3
  %45 = getelementptr inbounds nuw %struct.sp_int, ptr %44, i32 0, i32 0
  %46 = load i16, ptr %45, align 8, !tbaa !15
  %47 = zext i16 %46 to i32
  %48 = mul nsw i32 %47, 2
  %49 = icmp sgt i32 %48, 129
  br i1 %49, label %50, label %51

50:                                               ; preds = %43
  store i32 -98, ptr %7, align 4, !tbaa !8
  br label %51

51:                                               ; preds = %50, %43, %39, %36
  %52 = load i32, ptr %7, align 4, !tbaa !8
  %53 = icmp eq i32 %52, 0
  br i1 %53, label %54, label %70

54:                                               ; preds = %51
  %55 = load ptr, ptr %6, align 8, !tbaa !3
  %56 = load ptr, ptr %5, align 8, !tbaa !3
  %57 = icmp ne ptr %55, %56
  br i1 %57, label %58, label %70

58:                                               ; preds = %54
  %59 = load ptr, ptr %4, align 8, !tbaa !3
  %60 = load ptr, ptr %6, align 8, !tbaa !3
  %61 = call i32 @sp_sqr(ptr noundef %59, ptr noundef %60)
  store i32 %61, ptr %7, align 4, !tbaa !8
  %62 = load i32, ptr %7, align 4, !tbaa !8
  %63 = icmp eq i32 %62, 0
  br i1 %63, label %64, label %69

64:                                               ; preds = %58
  %65 = load ptr, ptr %6, align 8, !tbaa !3
  %66 = load ptr, ptr %5, align 8, !tbaa !3
  %67 = load ptr, ptr %6, align 8, !tbaa !3
  %68 = call i32 @sp_mod(ptr noundef %65, ptr noundef %66, ptr noundef %67)
  store i32 %68, ptr %7, align 4, !tbaa !8
  br label %69

69:                                               ; preds = %64, %58
  br label %79

70:                                               ; preds = %54, %51
  %71 = load i32, ptr %7, align 4, !tbaa !8
  %72 = icmp eq i32 %71, 0
  br i1 %72, label %73, label %78

73:                                               ; preds = %70
  %74 = load ptr, ptr %4, align 8, !tbaa !3
  %75 = load ptr, ptr %5, align 8, !tbaa !3
  %76 = load ptr, ptr %6, align 8, !tbaa !3
  %77 = call i32 @_sp_sqrmod(ptr noundef %74, ptr noundef %75, ptr noundef %76)
  store i32 %77, ptr %7, align 4, !tbaa !8
  br label %78

78:                                               ; preds = %73, %70
  br label %79

79:                                               ; preds = %78, %69
  %80 = load i32, ptr %7, align 4, !tbaa !8
  call void @llvm.lifetime.end.p0(i64 4, ptr %7) #8
  ret i32 %80
}