; Function Attrs: nofree norecurse nosync nounwind memory(readwrite, inaccessiblemem: none) uwtable
define range(i32 -98, 1) i32 @sp_sqrmod(ptr noundef captures(address_is_null) %0, ptr noundef captures(address) %1, ptr noundef captures(address) %2) local_unnamed_addr #11 {
  %4 = icmp ne ptr %0, null
  %5 = icmp ne ptr %1, null
  %or.cond.not34 = and i1 %4, %5
  %6 = icmp ne ptr %2, null
  %or.cond3.not = and i1 %or.cond.not34, %6
  br i1 %or.cond3.not, label %7, label %sp_mod.exit

7:                                                ; preds = %3
  %.not = icmp eq ptr %2, %1
  %8 = load i16, ptr %0, align 8, !tbaa !12
  br i1 %.not, label %16, label %9

9:                                                ; preds = %7
  %10 = zext i16 %8 to i32
  %11 = shl nuw nsw i32 %10, 1
  %12 = getelementptr inbounds nuw i8, ptr %2, i64 2
  %13 = load i16, ptr %12, align 2, !tbaa !10
  %14 = zext i16 %13 to i32
  %15 = icmp samesign ugt i32 %11, %14
  br i1 %15, label %sp_mod.exit, label %.thread

16:                                               ; preds = %7
  %17 = icmp ugt i16 %8, 64
  %spec.select37 = select i1 %17, i32 -98, i32 0
  br label %.thread

.thread:                                          ; preds = %9, %16
  %.2 = phi i32 [ %spec.select37, %16 ], [ 0, %9 ]
  %18 = icmp ne i32 %.2, 0
  %.not35 = icmp eq ptr %2, %1
  %or.cond = or i1 %.not35, %18
  br i1 %or.cond, label %27, label %19

19:                                               ; preds = %.thread
  %20 = tail call i32 @sp_sqr(ptr noundef nonnull %0, ptr noundef nonnull %2)
  %21 = icmp eq i32 %20, 0
  br i1 %21, label %22, label %sp_mod.exit

22:                                               ; preds = %19
  %23 = load i16, ptr %2, align 8, !tbaa !12
  %24 = icmp ult i16 %23, 129
  br i1 %24, label %25, label %sp_mod.exit

25:                                               ; preds = %22
  %26 = tail call i32 @sp_div(ptr noundef nonnull %2, ptr noundef nonnull %1, ptr noundef null, ptr noundef nonnull %2)
  br label %sp_mod.exit

27:                                               ; preds = %.thread
  br i1 %18, label %sp_mod.exit, label %28

28:                                               ; preds = %27
  %29 = tail call fastcc i32 @_sp_sqrmod(ptr noundef nonnull %0, ptr noundef nonnull %1, ptr noundef nonnull %2)
  br label %sp_mod.exit

sp_mod.exit:                                      ; preds = %3, %9, %25, %22, %27, %28, %19
  %.3 = phi i32 [ %20, %19 ], [ %29, %28 ], [ %.2, %27 ], [ %26, %25 ], [ -98, %22 ], [ -98, %9 ], [ -98, %3 ]
  ret i32 %.3
}